target datalayout = "e-m:e-p270:32:32-p271:32:32-p272:64:64-i64:64-i128:128-f80:128-n8:16:32:64-S128"
target triple = "x86_64-pc-linux-gnu"

%struct.HeapScanDescData = type { %struct.TableScanDescData, i32, i32, i32, i8, i16, i32, i32, ptr, %struct.HeapTupleData, ptr, i32, i32, ptr, i32, i32, [291 x i16] }
%struct.TableScanDescData = type { ptr, ptr, i32, ptr, %union.anon, i32, ptr }
%union.anon = type { %struct.TBMIterator }
%struct.TBMIterator = type { i8, %union.anon.0 }
%union.anon.0 = type { ptr }
%struct.HeapTupleData = type { i32, %struct.ItemPointerData, i32, ptr }
%struct.ItemPointerData = type { %struct.BlockIdData, i16 }
%struct.BlockIdData = type { i16, i16 }

; Function Attrs: nounwind uwtable
define internal i32 @heap_scan_stream_read_next_parallel(ptr noundef %0, ptr noundef %1, ptr noundef %2) #0 {
  %4 = alloca ptr, align 8
  %5 = alloca ptr, align 8
  %6 = alloca ptr, align 8
  %7 = alloca ptr, align 8
  store ptr %0, ptr %4, align 8
  store ptr %1, ptr %5, align 8
  store ptr %2, ptr %6, align 8
  call void @llvm.lifetime.start.p0(i64 8, ptr %7) #10
  %8 = load ptr, ptr %5, align 8
  store ptr %8, ptr %7, align 8
  %9 = load ptr, ptr %7, align 8
  %10 = getelementptr inbounds nuw %struct.HeapScanDescData, ptr %9, i32 0, i32 4
  %11 = load i8, ptr %10, align 4, !range !4, !noundef !5
  %12 = trunc i8 %11 to i1
  %13 = xor i1 %12, true
  %14 = zext i1 %13 to i32
  %15 = icmp ne i32 %14, 0
  %16 = zext i1 %15 to i32
  %17 = sext i32 %16 to i64
  %18 = call i64 @llvm.expect.i64(i64 %17, i64 0)
  %19 = icmp ne i64 %18, 0
  br i1 %19, label %20, label %48

20:                                               ; preds = %3
  %21 = load ptr, ptr %7, align 8
  %22 = getelementptr inbounds nuw %struct.HeapScanDescData, ptr %21, i32 0, i32 0
  %23 = getelementptr inbounds nuw %struct.TableScanDescData, ptr %22, i32 0, i32 0
  %24 = load ptr, ptr %23, align 8
  %25 = load ptr, ptr %7, align 8
  %26 = getelementptr inbounds nuw %struct.HeapScanDescData, ptr %25, i32 0, i32 13
  %27 = load ptr, ptr %26, align 8
  %28 = load ptr, ptr %7, align 8
  %29 = getelementptr inbounds nuw %struct.HeapScanDescData, ptr %28, i32 0, i32 0
  %30 = getelementptr inbounds nuw %struct.TableScanDescData, ptr %29, i32 0, i32 6
  %31 = load ptr, ptr %30, align 8
  call void @table_block_parallelscan_startblock_init(ptr noundef %24, ptr noundef %27, ptr noundef %31)
  %32 = load ptr, ptr %7, align 8
  %33 = getelementptr inbounds nuw %struct.HeapScanDescData, ptr %32, i32 0, i32 0
  %34 = getelementptr inbounds nuw %struct.TableScanDescData, ptr %33, i32 0, i32 0
  %35 = load ptr, ptr %34, align 8
  %36 = load ptr, ptr %7, align 8
  %37 = getelementptr inbounds nuw %struct.HeapScanDescData, ptr %36, i32 0, i32 13
  %38 = load ptr, ptr %37, align 8
  %39 = load ptr, ptr %7, align 8
  %40 = getelementptr inbounds nuw %struct.HeapScanDescData, ptr %39, i32 0, i32 0
  %41 = getelementptr inbounds nuw %struct.TableScanDescData, ptr %40, i32 0, i32 6
  %42 = load ptr, ptr %41, align 8
  %43 = call i32 @table_block_parallelscan_nextpage(ptr noundef %35, ptr noundef %38, ptr noundef %42)
  %44 = load ptr, ptr %7, align 8
  %45 = getelementptr inbounds nuw %struct.HeapScanDescData, ptr %44, i32 0, i32 12
  store i32 %43, ptr %45, align 4
  %46 = load ptr, ptr %7, align 8
  %47 = getelementptr inbounds nuw %struct.HeapScanDescData, ptr %46, i32 0, i32 4
  store i8 1, ptr %47, align 4
  br label %63

48:                                               ; preds = %3
  %49 = load ptr, ptr %7, align 8
  %50 = getelementptr inbounds nuw %struct.HeapScanDescData, ptr %49, i32 0, i32 0
  %51 = getelementptr inbounds nuw %struct.TableScanDescData, ptr %50, i32 0, i32 0
  %52 = load ptr, ptr %51, align 8
  %53 = load ptr, ptr %7, align 8
  %54 = getelementptr inbounds nuw %struct.HeapScanDescData, ptr %53, i32 0, i32 13
  %55 = load ptr, ptr %54, align 8
  %56 = load ptr, ptr %7, align 8
  %57 = getelementptr inbounds nuw %struct.HeapScanDescData, ptr %56, i32 0, i32 0
  %58 = getelementptr inbounds nuw %struct.TableScanDescData, ptr %57, i32 0, i32 6
  %59 = load ptr, ptr %58, align 8
  %60 = call i32 @table_block_parallelscan_nextpage(ptr noundef %52, ptr noundef %55, ptr noundef %59)
  %61 = load ptr, ptr %7, align 8
  %62 = getelementptr inbounds nuw %struct.HeapScanDescData, ptr %61, i32 0, i32 12
  store i32 %60, ptr %62, align 4
  br label %63

63:                                               ; preds = %48, %20
  %64 = load ptr, ptr %7, align 8
  %65 = getelementptr inbounds nuw %struct.HeapScanDescData, ptr %64, i32 0, i32 12
  %66 = load i32, ptr %65, align 4
  call void @llvm.lifetime.end.p0(i64 8, ptr %7) #10
  ret i32 %66
}