; Function Attrs: nounwind uwtable
define internal i32 @heap_scan_stream_read_next_parallel(ptr readnone captures(none) %0, ptr noundef captures(none) initializes((132, 136)) %1, ptr readnone captures(none) %2) #2 {
  %4 = getelementptr inbounds nuw i8, ptr %1, i64 76
  %5 = load i8, ptr %4, align 4, !range !6, !noundef !7
  %6 = trunc nuw i8 %5 to i1
  %7 = load ptr, ptr %1, align 8
  %8 = getelementptr inbounds nuw i8, ptr %1, i64 136
  %9 = load ptr, ptr %8, align 8
  %10 = getelementptr inbounds nuw i8, ptr %1, i64 56
  %11 = load ptr, ptr %10, align 8
  br i1 %6, label %17, label %12, !prof !11

12:                                               ; preds = %3
  tail call void @table_block_parallelscan_startblock_init(ptr noundef %7, ptr noundef %9, ptr noundef %11) #13
  %13 = load ptr, ptr %1, align 8
  %14 = load ptr, ptr %8, align 8
  %15 = load ptr, ptr %10, align 8
  %16 = tail call i32 @table_block_parallelscan_nextpage(ptr noundef %13, ptr noundef %14, ptr noundef %15) #13
  store i8 1, ptr %4, align 4
  br label %19

17:                                               ; preds = %3
  %18 = tail call i32 @table_block_parallelscan_nextpage(ptr noundef %7, ptr noundef %9, ptr noundef %11) #13
  br label %19

19:                                               ; preds = %17, %12
  %.sink = phi i32 [ %18, %17 ], [ %16, %12 ]
  %20 = getelementptr inbounds nuw i8, ptr %1, i64 132
  store i32 %.sink, ptr %20, align 4
  ret i32 %.sink
}